; Function Attrs: nounwind uwtable
define internal fastcc void @exec_command_help(ptr noundef %0, i1 noundef zeroext %1) unnamed_addr #0 {
  br i1 %1, label %3, label %6

3:                                                ; preds = %2
  %4 = tail call ptr @psql_scan_slash_option(ptr noundef %0, i32 noundef 4, ptr noundef null, i1 noundef zeroext true) #16
  %5 = load i16, ptr getelementptr inbounds nuw (i8, ptr @pset, i64 66), align 2
  tail call void @helpSQL(ptr noundef %4, i16 noundef zeroext %5) #16
  br label %8

6:                                                ; preds = %2
  %7 = tail call ptr @psql_scan_slash_option(ptr noundef %0, i32 noundef 4, ptr noundef null, i1 noundef zeroext false) #16
  br label %8

8:                                                ; preds = %6, %3
  %.sink = phi ptr [ %7, %6 ], [ %4, %3 ]
  tail call void @free(ptr noundef %.sink) #16
  ret void
}